target datalayout = "e-m:e-p270:32:32-p271:32:32-p272:64:64-i64:64-i128:128-f80:128-n8:16:32:64-S128"
target triple = "x86_64-pc-linux-gnu"

%struct.WasmEdge_ConfigureContext = type { %"class.WasmEdge::Configure" }
%"class.WasmEdge::Configure" = type { %"class.std::shared_mutex", %"class.std::bitset", %"class.std::bitset.20", %"class.std::unordered_set", %"class.WasmEdge::CompilerConfigure", [3 x i8], %"class.WasmEdge::RuntimeConfigure", %"class.WasmEdge::StatisticsConfigure" }
%"class.std::shared_mutex" = type { %"class.std::__shared_mutex_pthread" }
%"class.std::__shared_mutex_pthread" = type { %union.pthread_rwlock_t }
%union.pthread_rwlock_t = type { %struct.__pthread_rwlock_arch_t }
%struct.__pthread_rwlock_arch_t = type { i32, i32, i32, i32, i32, i32, i32, i32, i8, [7 x i8], i64, i32 }
%"class.std::bitset" = type { %"struct.std::_Base_bitset" }
%"struct.std::_Base_bitset" = type { i64 }
%"class.std::bitset.20" = type { %"struct.std::_Base_bitset" }
%"class.std::unordered_set" = type { %"class.std::_Hashtable" }
%"class.std::_Hashtable" = type { ptr, i64, %"struct.std::__detail::_Hash_node_base", i64, %"struct.std::__detail::_Prime_rehash_policy", ptr }
%"struct.std::__detail::_Hash_node_base" = type { ptr }
%"struct.std::__detail::_Prime_rehash_policy" = type { float, i64 }
%"class.WasmEdge::CompilerConfigure" = type { %"struct.std::atomic", %"struct.std::atomic.23", %"struct.std::atomic.24", %"struct.std::atomic.24", %"struct.std::atomic.24" }
%"struct.std::atomic" = type { i8 }
%"struct.std::atomic.23" = type { i8 }
%"struct.std::atomic.24" = type { %"struct.std::__atomic_base" }
%"struct.std::__atomic_base" = type { i8 }
%"class.WasmEdge::RuntimeConfigure" = type <{ %"struct.std::atomic.25", %"struct.std::atomic.24", %"struct.std::atomic.24", %"struct.std::atomic.24", i8 }>
%"struct.std::atomic.25" = type { %"struct.std::__atomic_base.26" }
%"struct.std::__atomic_base.26" = type { i32 }
%"class.WasmEdge::StatisticsConfigure" = type { %"struct.std::atomic.24", %"struct.std::atomic.24", %"struct.std::atomic.24", %"struct.std::atomic.27" }
%"struct.std::atomic.27" = type { %"struct.std::__atomic_base.28" }
%"struct.std::__atomic_base.28" = type { i64 }

; Function Attrs: mustprogress nounwind uwtable
define linkonce_odr noundef i32 @_ZStanSt12memory_orderSt23__memory_order_modifier(i32 noundef %0, i32 noundef %1) #0 comdat {
  %3 = alloca i32, align 4
  %4 = alloca i32, align 4
  store i32 %0, ptr %3, align 4
  store i32 %1, ptr %4, align 4
  %5 = load i32, ptr %3, align 4
  %6 = load i32, ptr %4, align 4
  %7 = and i32 %5, %6
  ret i32 %7
}

; Function Attrs: mustprogress nounwind uwtable
define linkonce_odr hidden void @_ZNSt6atomicIbE5storeEbSt12memory_order(ptr noundef nonnull align 1 dereferenceable(1) %0, i1 noundef zeroext %1, i32 noundef %2) #0 comdat align 2 {
  %4 = alloca ptr, align 8
  %5 = alloca i8, align 1
  %6 = alloca i32, align 4
  %7 = alloca i32, align 4
  %8 = alloca i8, align 1
  %9 = alloca ptr, align 8
  %10 = alloca i8, align 1
  %11 = alloca i32, align 4
  store ptr %0, ptr %9, align 8
  %12 = zext i1 %1 to i8
  store i8 %12, ptr %10, align 1
  store i32 %2, ptr %11, align 4
  %13 = load ptr, ptr %9, align 8
  %14 = getelementptr inbounds %"struct.std::atomic.24", ptr %13, i32 0, i32 0
  %15 = load i8, ptr %10, align 1
  %16 = trunc i8 %15 to i1
  %17 = load i32, ptr %11, align 4
  store ptr %14, ptr %4, align 8
  %18 = zext i1 %16 to i8
  store i8 %18, ptr %5, align 1
  store i32 %17, ptr %6, align 4
  %19 = load ptr, ptr %4, align 8
  %20 = load i32, ptr %6, align 4
  %21 = call noundef i32 @_ZStanSt12memory_orderSt23__memory_order_modifier(i32 noundef %20, i32 noundef 65535)
  store i32 %21, ptr %7, align 4
  %22 = load i32, ptr %6, align 4
  %23 = load i8, ptr %5, align 1
  %24 = trunc i8 %23 to i1
  %25 = zext i1 %24 to i8
  store i8 %25, ptr %8, align 1
  switch i32 %22, label %26 [
    i32 3, label %28
    i32 5, label %30
  ]

26:                                               ; preds = %3
  %27 = load i8, ptr %8, align 1
  store atomic i8 %27, ptr %19 monotonic, align 1
  br label %32

28:                                               ; preds = %3
  %29 = load i8, ptr %8, align 1
  store atomic i8 %29, ptr %19 release, align 1
  br label %32

30:                                               ; preds = %3
  %31 = load i8, ptr %8, align 1
  store atomic i8 %31, ptr %19 seq_cst, align 1
  br label %32

32:                                               ; preds = %30, %28, %26
  ret void
}

; Function Attrs: mustprogress nounwind uwtable
define linkonce_odr hidden void @_ZN8WasmEdge17CompilerConfigure9setDumpIREb(ptr noundef nonnull align 1 dereferenceable(5) %0, i1 noundef zeroext %1) #0 comdat align 2 {
  %3 = alloca ptr, align 8
  %4 = alloca i8, align 1
  store ptr %0, ptr %3, align 8
  %5 = zext i1 %1 to i8
  store i8 %5, ptr %4, align 1
  %6 = load ptr, ptr %3, align 8
  %7 = getelementptr inbounds %"class.WasmEdge::CompilerConfigure", ptr %6, i32 0, i32 2
  %8 = load i8, ptr %4, align 1
  %9 = trunc i8 %8 to i1
  call void @_ZNSt6atomicIbE5storeEbSt12memory_order(ptr noundef nonnull align 1 dereferenceable(1) %7, i1 noundef zeroext %9, i32 noundef 0) #18
  ret void
}

; Function Attrs: mustprogress nounwind uwtable
define linkonce_odr hidden noundef nonnull align 1 dereferenceable(5) ptr @_ZN8WasmEdge9Configure20getCompilerConfigureEv(ptr noundef nonnull align 8 dereferenceable(160) %0) #0 comdat align 2 {
  %2 = alloca ptr, align 8
  store ptr %0, ptr %2, align 8
  %3 = load ptr, ptr %2, align 8
  %4 = getelementptr inbounds %"class.WasmEdge::Configure", ptr %3, i32 0, i32 4
  ret ptr %4
}

; Function Attrs: mustprogress nounwind uwtable
define void @WasmEdge_ConfigureCompilerSetDumpIR(ptr noundef %0, i1 noundef zeroext %1) #0 {
  %3 = alloca ptr, align 8
  %4 = alloca i8, align 1
  store ptr %0, ptr %3, align 8
  %5 = zext i1 %1 to i8
  store i8 %5, ptr %4, align 1
  %6 = load ptr, ptr %3, align 8
  %7 = icmp ne ptr %6, null
  br i1 %7, label %8, label %14

8:                                                ; preds = %2
  %9 = load ptr, ptr %3, align 8
  %10 = getelementptr inbounds %struct.WasmEdge_ConfigureContext, ptr %9, i32 0, i32 0
  %11 = call noundef nonnull align 1 dereferenceable(5) ptr @_ZN8WasmEdge9Configure20getCompilerConfigureEv(ptr noundef nonnull align 8 dereferenceable(160) %10) #18
  %12 = load i8, ptr %4, align 1
  %13 = trunc i8 %12 to i1
  call void @_ZN8WasmEdge17CompilerConfigure9setDumpIREb(ptr noundef nonnull align 1 dereferenceable(5) %11, i1 noundef zeroext %13) #18
  br label %14

14:                                               ; preds = %8, %2
  ret void
}