; Function Attrs: mustprogress nofree norecurse nounwind willreturn memory(argmem: readwrite) uwtable
define void @WasmEdge_ConfigureCompilerSetDumpIR(ptr noundef writeonly %0, i1 noundef zeroext %1) local_unnamed_addr #13 {
  %.not = icmp eq ptr %0, null
  br i1 %.not, label %6, label %3

3:                                                ; preds = %2
  %4 = getelementptr inbounds i8, ptr %0, i64 130
  %5 = zext i1 %1 to i8
  store atomic i8 %5, ptr %4 monotonic, align 1
  br label %6

6:                                                ; preds = %3, %2
  ret void
}